; Function Attrs: mustprogress uwtable
define void @_ZN14fa_cache_sim_tC2EmmPKc(ptr noundef nonnull align 8 dereferenceable(208) %0, i64 noundef %1, i64 noundef %2, ptr noundef %3) unnamed_addr #3 align 2 personality ptr @__gxx_personality_v0 {
  %5 = alloca %"class.std::allocator", align 1
  call void @llvm.lifetime.start.p0(i64 1, ptr nonnull %5)
  store ptr getelementptr inbounds ({ [6 x ptr] }, ptr @_ZTV11cache_sim_t, i64 0, i32 0, i64 2), ptr %0, align 8
  %6 = getelementptr inbounds i8, ptr %0, i64 8
  store i32 1, ptr %6, align 8
  %7 = getelementptr inbounds i8, ptr %0, i64 24
  store i64 1, ptr %7, align 8
  %8 = getelementptr inbounds i8, ptr %0, i64 32
  store i64 %1, ptr %8, align 8
  %9 = getelementptr inbounds i8, ptr %0, i64 40
  store i64 %2, ptr %9, align 8
  %10 = getelementptr inbounds i8, ptr %0, i64 120
  call void @_ZNSaIcEC1Ev(ptr noundef nonnull align 1 dereferenceable(1) %5) #20
  invoke void @_ZNSt7__cxx1112basic_stringIcSt11char_traitsIcESaIcEEC2IS3_EEPKcRKS3_(ptr noundef nonnull align 8 dereferenceable(32) %10, ptr noundef %3, ptr noundef nonnull align 1 dereferenceable(1) %5)
          to label %11 unwind label %13

11:                                               ; preds = %4
  call void @_ZNSaIcED1Ev(ptr noundef nonnull align 1 dereferenceable(1) %5) #20
  %12 = getelementptr inbounds i8, ptr %0, i64 152
  store i8 0, ptr %12, align 8
  invoke void @_ZN11cache_sim_t4initEv(ptr noundef nonnull align 8 dereferenceable(153) %0)
          to label %_ZN11cache_sim_tC2EmmmPKc.exit unwind label %15

13:                                               ; preds = %4
  %14 = landingpad { ptr, i32 }
          cleanup
  call void @_ZNSaIcED1Ev(ptr noundef nonnull align 1 dereferenceable(1) %5) #20
  br label %17

15:                                               ; preds = %11
  %16 = landingpad { ptr, i32 }
          cleanup
  call void @_ZNSt7__cxx1112basic_stringIcSt11char_traitsIcESaIcEED2Ev(ptr noundef nonnull align 8 dereferenceable(32) %10) #20
  br label %17

17:                                               ; preds = %15, %13
  %.pn.i = phi { ptr, i32 } [ %16, %15 ], [ %14, %13 ]
  resume { ptr, i32 } %.pn.i

_ZN11cache_sim_tC2EmmmPKc.exit:                   ; preds = %11
  call void @llvm.lifetime.end.p0(i64 1, ptr nonnull %5)
  store ptr getelementptr inbounds ({ [6 x ptr] }, ptr @_ZTV14fa_cache_sim_t, i64 0, i32 0, i64 2), ptr %0, align 8
  %18 = getelementptr inbounds i8, ptr %0, i64 168
  store i32 0, ptr %18, align 8
  %19 = getelementptr inbounds i8, ptr %0, i64 176
  store ptr null, ptr %19, align 8
  %20 = getelementptr inbounds i8, ptr %0, i64 184
  store ptr %18, ptr %20, align 8
  %21 = getelementptr inbounds i8, ptr %0, i64 192
  store ptr %18, ptr %21, align 8
  %22 = getelementptr inbounds i8, ptr %0, i64 200
  store i64 0, ptr %22, align 8
  ret void
}